; Function Attrs: mustprogress uwtable
define void @_ZN6Assimp11SMDImporter10LogWarningEPKc(ptr noundef nonnull readonly align 8 captures(none) dereferenceable(226) %0, ptr noundef %1) local_unnamed_addr #3 align 2 {
  %3 = alloca [1024 x i8], align 16
  call void @llvm.lifetime.start.p0(i64 1024, ptr nonnull %3) #28
  %4 = getelementptr inbounds nuw i8, ptr %0, i64 220
  %5 = load i32, ptr %4, align 4
  %6 = call i32 (ptr, i64, ptr, ...) @snprintf(ptr noundef nonnull dereferenceable(1) %3, i64 noundef 1024, ptr noundef nonnull @.str.8, i32 noundef %5, ptr noundef %1) #28
  %7 = tail call noundef ptr @_ZN6Assimp13DefaultLogger3getEv()
  call void @_ZN6Assimp6Logger4warnIJRA1024_cEEEvDpOT_(ptr noundef nonnull align 8 dereferenceable(12) %7, ptr noundef nonnull align 1 dereferenceable(1024) %3)
  call void @llvm.lifetime.end.p0(i64 1024, ptr nonnull %3) #28
  ret void
}